target datalayout = "e-m:e-p270:32:32-p271:32:32-p272:64:64-i64:64-i128:128-f80:128-n8:16:32:64-S128"
target triple = "x86_64-pc-linux-gnu"

%"struct.dmg_fp::Bigint" = type { ptr, i32, i32, i32, i32, [1 x i32] }

@_ZN6dmg_fpL8freelistE = internal global [8 x ptr] zeroinitializer, align 16
@_ZL9pmem_next = internal global ptr @_ZL11private_mem, align 8
@_ZL11private_mem = internal global [288 x double] zeroinitializer, align 16

; Function Attrs: mustprogress nounwind uwtable
define internal void @_ZN6dmg_fpL5BfreeEPNS_6BigintE(ptr noundef %0) #2 {
  %2 = alloca ptr, align 8
  store ptr %0, ptr %2, align 8, !tbaa !30
  %3 = load ptr, ptr %2, align 8, !tbaa !30
  %4 = icmp ne ptr %3, null
  br i1 %4, label %5, label %28

5:                                                ; preds = %1
  %6 = load ptr, ptr %2, align 8, !tbaa !30
  %7 = getelementptr inbounds nuw %"struct.dmg_fp::Bigint", ptr %6, i32 0, i32 1
  %8 = load i32, ptr %7, align 8, !tbaa !40
  %9 = icmp sgt i32 %8, 7
  br i1 %9, label %10, label %12

10:                                               ; preds = %5
  %11 = load ptr, ptr %2, align 8, !tbaa !30
  call void @free(ptr noundef %11) #9
  br label %27

12:                                               ; preds = %5
  %13 = load ptr, ptr %2, align 8, !tbaa !30
  %14 = getelementptr inbounds nuw %"struct.dmg_fp::Bigint", ptr %13, i32 0, i32 1
  %15 = load i32, ptr %14, align 8, !tbaa !40
  %16 = sext i32 %15 to i64
  %17 = getelementptr inbounds [8 x ptr], ptr @_ZN6dmg_fpL8freelistE, i64 0, i64 %16
  %18 = load ptr, ptr %17, align 8, !tbaa !30
  %19 = load ptr, ptr %2, align 8, !tbaa !30
  %20 = getelementptr inbounds nuw %"struct.dmg_fp::Bigint", ptr %19, i32 0, i32 0
  store ptr %18, ptr %20, align 8, !tbaa !54
  %21 = load ptr, ptr %2, align 8, !tbaa !30
  %22 = load ptr, ptr %2, align 8, !tbaa !30
  %23 = getelementptr inbounds nuw %"struct.dmg_fp::Bigint", ptr %22, i32 0, i32 1
  %24 = load i32, ptr %23, align 8, !tbaa !40
  %25 = sext i32 %24 to i64
  %26 = getelementptr inbounds [8 x ptr], ptr @_ZN6dmg_fpL8freelistE, i64 0, i64 %25
  store ptr %21, ptr %26, align 8, !tbaa !30
  br label %27

27:                                               ; preds = %12, %10
  br label %28

28:                                               ; preds = %27, %1
  ret void
}

; Function Attrs: mustprogress nounwind uwtable
define internal noundef ptr @_ZN6dmg_fpL6BallocEi(i32 noundef %0) #2 {
  %2 = alloca i32, align 4
  %3 = alloca i32, align 4
  %4 = alloca ptr, align 8
  %5 = alloca i32, align 4
  store i32 %0, ptr %2, align 4, !tbaa !14
  call void @llvm.lifetime.start.p0(i64 4, ptr %3) #9
  call void @llvm.lifetime.start.p0(i64 8, ptr %4) #9
  call void @llvm.lifetime.start.p0(i64 4, ptr %5) #9
  %6 = load i32, ptr %2, align 4, !tbaa !14
  %7 = icmp sle i32 %6, 7
  br i1 %7, label %8, label %25

8:                                                ; preds = %1
  %9 = load i32, ptr %2, align 4, !tbaa !14
  %10 = sext i32 %9 to i64
  %11 = getelementptr inbounds [8 x ptr], ptr @_ZN6dmg_fpL8freelistE, i64 0, i64 %10
  %12 = load ptr, ptr %11, align 8, !tbaa !30
  %13 = icmp ne ptr %12, null
  br i1 %13, label %14, label %25

14:                                               ; preds = %8
  %15 = load i32, ptr %2, align 4, !tbaa !14
  %16 = sext i32 %15 to i64
  %17 = getelementptr inbounds [8 x ptr], ptr @_ZN6dmg_fpL8freelistE, i64 0, i64 %16
  %18 = load ptr, ptr %17, align 8, !tbaa !30
  store ptr %18, ptr %4, align 8, !tbaa !30
  %19 = load ptr, ptr %4, align 8, !tbaa !30
  %20 = getelementptr inbounds nuw %"struct.dmg_fp::Bigint", ptr %19, i32 0, i32 0
  %21 = load ptr, ptr %20, align 8, !tbaa !54
  %22 = load i32, ptr %2, align 4, !tbaa !14
  %23 = sext i32 %22 to i64
  %24 = getelementptr inbounds [8 x ptr], ptr @_ZN6dmg_fpL8freelistE, i64 0, i64 %23
  store ptr %21, ptr %24, align 8, !tbaa !30
  br label %66

25:                                               ; preds = %8, %1
  %26 = load i32, ptr %2, align 4, !tbaa !14
  %27 = shl i32 1, %26
  store i32 %27, ptr %3, align 4, !tbaa !14
  %28 = load i32, ptr %3, align 4, !tbaa !14
  %29 = sub nsw i32 %28, 1
  %30 = sext i32 %29 to i64
  %31 = mul i64 %30, 4
  %32 = add i64 32, %31
  %33 = add i64 %32, 8
  %34 = sub i64 %33, 1
  %35 = udiv i64 %34, 8
  %36 = trunc i64 %35 to i32
  store i32 %36, ptr %5, align 4, !tbaa !14
  %37 = load i32, ptr %2, align 4, !tbaa !14
  %38 = icmp sle i32 %37, 7
  br i1 %38, label %39, label %54

39:                                               ; preds = %25
  %40 = load ptr, ptr @_ZL9pmem_next, align 8, !tbaa !55
  %41 = ptrtoint ptr %40 to i64
  %42 = sub i64 %41, ptrtoint (ptr @_ZL11private_mem to i64)
  %43 = sdiv exact i64 %42, 8
  %44 = load i32, ptr %5, align 4, !tbaa !14
  %45 = zext i32 %44 to i64
  %46 = add nsw i64 %43, %45
  %47 = icmp sle i64 %46, 288
  br i1 %47, label %48, label %54

48:                                               ; preds = %39
  %49 = load ptr, ptr @_ZL9pmem_next, align 8, !tbaa !55
  store ptr %49, ptr %4, align 8, !tbaa !30
  %50 = load i32, ptr %5, align 4, !tbaa !14
  %51 = load ptr, ptr @_ZL9pmem_next, align 8, !tbaa !55
  %52 = zext i32 %50 to i64
  %53 = getelementptr inbounds nuw double, ptr %51, i64 %52
  store ptr %53, ptr @_ZL9pmem_next, align 8, !tbaa !55
  br label %59

54:                                               ; preds = %39, %25
  %55 = load i32, ptr %5, align 4, !tbaa !14
  %56 = zext i32 %55 to i64
  %57 = mul i64 %56, 8
  %58 = call noalias ptr @malloc(i64 noundef %57) #11
  store ptr %58, ptr %4, align 8, !tbaa !30
  br label %59

59:                                               ; preds = %54, %48
  %60 = load i32, ptr %2, align 4, !tbaa !14
  %61 = load ptr, ptr %4, align 8, !tbaa !30
  %62 = getelementptr inbounds nuw %"struct.dmg_fp::Bigint", ptr %61, i32 0, i32 1
  store i32 %60, ptr %62, align 8, !tbaa !40
  %63 = load i32, ptr %3, align 4, !tbaa !14
  %64 = load ptr, ptr %4, align 8, !tbaa !30
  %65 = getelementptr inbounds nuw %"struct.dmg_fp::Bigint", ptr %64, i32 0, i32 2
  store i32 %63, ptr %65, align 4, !tbaa !57
  br label %66

66:                                               ; preds = %59, %14
  %67 = load ptr, ptr %4, align 8, !tbaa !30
  %68 = getelementptr inbounds nuw %"struct.dmg_fp::Bigint", ptr %67, i32 0, i32 4
  store i32 0, ptr %68, align 4, !tbaa !42
  %69 = load ptr, ptr %4, align 8, !tbaa !30
  %70 = getelementptr inbounds nuw %"struct.dmg_fp::Bigint", ptr %69, i32 0, i32 3
  store i32 0, ptr %70, align 8, !tbaa !43
  %71 = load ptr, ptr %4, align 8, !tbaa !30
  call void @llvm.lifetime.end.p0(i64 4, ptr %5) #9
  call void @llvm.lifetime.end.p0(i64 8, ptr %4) #9
  call void @llvm.lifetime.end.p0(i64 4, ptr %3) #9
  ret ptr %71
}

; Function Attrs: mustprogress nounwind uwtable
define internal noundef ptr @_ZN6dmg_fpL7multaddEPNS_6BigintEii(ptr noundef %0, i32 noundef %1, i32 noundef %2) #2 {
  %4 = alloca ptr, align 8
  %5 = alloca i32, align 4
  %6 = alloca i32, align 4
  %7 = alloca i32, align 4
  %8 = alloca i32, align 4
  %9 = alloca ptr, align 8
  %10 = alloca i64, align 8
  %11 = alloca i64, align 8
  %12 = alloca ptr, align 8
  store ptr %0, ptr %4, align 8, !tbaa !30
  store i32 %1, ptr %5, align 4, !tbaa !14
  store i32 %2, ptr %6, align 4, !tbaa !14
  call void @llvm.lifetime.start.p0(i64 4, ptr %7) #9
  call void @llvm.lifetime.start.p0(i64 4, ptr %8) #9
  call void @llvm.lifetime.start.p0(i64 8, ptr %9) #9
  call void @llvm.lifetime.start.p0(i64 8, ptr %10) #9
  call void @llvm.lifetime.start.p0(i64 8, ptr %11) #9
  call void @llvm.lifetime.start.p0(i64 8, ptr %12) #9
  %13 = load ptr, ptr %4, align 8, !tbaa !30
  %14 = getelementptr inbounds nuw %"struct.dmg_fp::Bigint", ptr %13, i32 0, i32 4
  %15 = load i32, ptr %14, align 4, !tbaa !42
  store i32 %15, ptr %8, align 4, !tbaa !14
  %16 = load ptr, ptr %4, align 8, !tbaa !30
  %17 = getelementptr inbounds nuw %"struct.dmg_fp::Bigint", ptr %16, i32 0, i32 5
  %18 = getelementptr inbounds [1 x i32], ptr %17, i64 0, i64 0
  store ptr %18, ptr %9, align 8, !tbaa !58
  store i32 0, ptr %7, align 4, !tbaa !14
  %19 = load i32, ptr %6, align 4, !tbaa !14
  %20 = sext i32 %19 to i64
  store i64 %20, ptr %10, align 8, !tbaa !62
  br label %21

21:                                               ; preds = %37, %3
  %22 = load ptr, ptr %9, align 8, !tbaa !58
  %23 = load i32, ptr %22, align 4, !tbaa !14
  %24 = zext i32 %23 to i64
  %25 = load i32, ptr %5, align 4, !tbaa !14
  %26 = sext i32 %25 to i64
  %27 = mul i64 %24, %26
  %28 = load i64, ptr %10, align 8, !tbaa !62
  %29 = add i64 %27, %28
  store i64 %29, ptr %11, align 8, !tbaa !62
  %30 = load i64, ptr %11, align 8, !tbaa !62
  %31 = lshr i64 %30, 32
  store i64 %31, ptr %10, align 8, !tbaa !62
  %32 = load i64, ptr %11, align 8, !tbaa !62
  %33 = and i64 %32, 4294967295
  %34 = trunc i64 %33 to i32
  %35 = load ptr, ptr %9, align 8, !tbaa !58
  %36 = getelementptr inbounds nuw i32, ptr %35, i32 1
  store ptr %36, ptr %9, align 8, !tbaa !58
  store i32 %34, ptr %35, align 4, !tbaa !14
  br label %37

37:                                               ; preds = %21
  %38 = load i32, ptr %7, align 4, !tbaa !14
  %39 = add nsw i32 %38, 1
  store i32 %39, ptr %7, align 4, !tbaa !14
  %40 = load i32, ptr %8, align 4, !tbaa !14
  %41 = icmp slt i32 %39, %40
  br i1 %41, label %21, label %42, !llvm.loop !92

42:                                               ; preds = %37
  %43 = load i64, ptr %10, align 8, !tbaa !62
  %44 = icmp ne i64 %43, 0
  br i1 %44, label %45, label %81

45:                                               ; preds = %42
  %46 = load i32, ptr %8, align 4, !tbaa !14
  %47 = load ptr, ptr %4, align 8, !tbaa !30
  %48 = getelementptr inbounds nuw %"struct.dmg_fp::Bigint", ptr %47, i32 0, i32 2
  %49 = load i32, ptr %48, align 4, !tbaa !57
  %50 = icmp sge i32 %46, %49
  br i1 %50, label %51, label %69

51:                                               ; preds = %45
  %52 = load ptr, ptr %4, align 8, !tbaa !30
  %53 = getelementptr inbounds nuw %"struct.dmg_fp::Bigint", ptr %52, i32 0, i32 1
  %54 = load i32, ptr %53, align 8, !tbaa !40
  %55 = add nsw i32 %54, 1
  %56 = call noundef ptr @_ZN6dmg_fpL6BallocEi(i32 noundef %55)
  store ptr %56, ptr %12, align 8, !tbaa !30
  %57 = load ptr, ptr %12, align 8, !tbaa !30
  %58 = getelementptr inbounds nuw %"struct.dmg_fp::Bigint", ptr %57, i32 0, i32 3
  %59 = load ptr, ptr %4, align 8, !tbaa !30
  %60 = getelementptr inbounds nuw %"struct.dmg_fp::Bigint", ptr %59, i32 0, i32 3
  %61 = load ptr, ptr %4, align 8, !tbaa !30
  %62 = getelementptr inbounds nuw %"struct.dmg_fp::Bigint", ptr %61, i32 0, i32 4
  %63 = load i32, ptr %62, align 4, !tbaa !42
  %64 = sext i32 %63 to i64
  %65 = mul i64 %64, 4
  %66 = add i64 %65, 8
  call void @llvm.memcpy.p0.p0.i64(ptr align 8 %58, ptr align 8 %60, i64 %66, i1 false)
  %67 = load ptr, ptr %4, align 8, !tbaa !30
  call void @_ZN6dmg_fpL5BfreeEPNS_6BigintE(ptr noundef %67)
  %68 = load ptr, ptr %12, align 8, !tbaa !30
  store ptr %68, ptr %4, align 8, !tbaa !30
  br label %69

69:                                               ; preds = %51, %45
  %70 = load i64, ptr %10, align 8, !tbaa !62
  %71 = trunc i64 %70 to i32
  %72 = load ptr, ptr %4, align 8, !tbaa !30
  %73 = getelementptr inbounds nuw %"struct.dmg_fp::Bigint", ptr %72, i32 0, i32 5
  %74 = load i32, ptr %8, align 4, !tbaa !14
  %75 = add nsw i32 %74, 1
  store i32 %75, ptr %8, align 4, !tbaa !14
  %76 = sext i32 %74 to i64
  %77 = getelementptr inbounds [1 x i32], ptr %73, i64 0, i64 %76
  store i32 %71, ptr %77, align 4, !tbaa !14
  %78 = load i32, ptr %8, align 4, !tbaa !14
  %79 = load ptr, ptr %4, align 8, !tbaa !30
  %80 = getelementptr inbounds nuw %"struct.dmg_fp::Bigint", ptr %79, i32 0, i32 4
  store i32 %78, ptr %80, align 4, !tbaa !42
  br label %81

81:                                               ; preds = %69, %42
  %82 = load ptr, ptr %4, align 8, !tbaa !30
  call void @llvm.lifetime.end.p0(i64 8, ptr %12) #9
  call void @llvm.lifetime.end.p0(i64 8, ptr %11) #9
  call void @llvm.lifetime.end.p0(i64 8, ptr %10) #9
  call void @llvm.lifetime.end.p0(i64 8, ptr %9) #9
  call void @llvm.lifetime.end.p0(i64 4, ptr %8) #9
  call void @llvm.lifetime.end.p0(i64 4, ptr %7) #9
  ret ptr %82
}