; Function Attrs: mustprogress nounwind uwtable
define internal fastcc noundef ptr @_ZN6dmg_fpL7multaddEPNS_6BigintEii(ptr noundef %0, i32 noundef %1, i32 noundef range(i32 -176, 80) %2) unnamed_addr #0 {
  %4 = getelementptr inbounds nuw i8, ptr %0, i64 20
  %5 = load i32, ptr %4, align 4, !tbaa !37
  %6 = getelementptr inbounds nuw i8, ptr %0, i64 24
  %7 = sext i32 %2 to i64
  %8 = sext i32 %1 to i64
  %smax = tail call i32 @llvm.smax.i32(i32 %5, i32 1)
  br label %9

9:                                                ; preds = %9, %3
  %.027 = phi ptr [ %6, %3 ], [ %16, %9 ]
  %.026 = phi i64 [ %7, %3 ], [ %14, %9 ]
  %.025 = phi i32 [ 0, %3 ], [ %17, %9 ]
  %10 = load i32, ptr %.027, align 4, !tbaa !20
  %11 = zext i32 %10 to i64
  %12 = mul nsw i64 %11, %8
  %13 = add nsw i64 %12, %.026
  %14 = lshr i64 %13, 32
  %15 = trunc i64 %13 to i32
  %16 = getelementptr inbounds nuw i8, ptr %.027, i64 4
  store i32 %15, ptr %.027, align 4, !tbaa !20
  %17 = add nuw nsw i32 %.025, 1
  %exitcond.not = icmp eq i32 %17, %smax
  br i1 %exitcond.not, label %18, label %9, !llvm.loop !71

18:                                               ; preds = %9
  %.not = icmp ult i64 %13, 4294967296
  br i1 %.not, label %84, label %19

19:                                               ; preds = %18
  %20 = getelementptr inbounds nuw i8, ptr %0, i64 12
  %21 = load i32, ptr %20, align 4, !tbaa !35
  %.not30 = icmp slt i32 %5, %21
  br i1 %.not30, label %_ZN6dmg_fpL5BfreeEPNS_6BigintE.exit, label %22

22:                                               ; preds = %19
  %23 = getelementptr inbounds nuw i8, ptr %0, i64 8
  %24 = load i32, ptr %23, align 8, !tbaa !34
  %25 = add nsw i32 %24, 1
  %26 = icmp slt i32 %24, 7
  br i1 %26, label %27, label %33

27:                                               ; preds = %22
  %28 = sext i32 %25 to i64
  %29 = getelementptr inbounds [8 x ptr], ptr @_ZN6dmg_fpL8freelistE, i64 0, i64 %28
  %30 = load ptr, ptr %29, align 8, !tbaa !28
  %.not.i = icmp eq ptr %30, null
  br i1 %.not.i, label %39, label %31

31:                                               ; preds = %27
  %32 = load ptr, ptr %30, align 8, !tbaa !30
  store ptr %32, ptr %29, align 8, !tbaa !28
  br label %63

33:                                               ; preds = %22
  %34 = shl nuw i32 1, %25
  %35 = add nsw i32 %34, -1
  %36 = zext nneg i32 %35 to i64
  %37 = shl nuw nsw i64 %36, 2
  %38 = add nuw nsw i64 %37, 39
  br label %54

39:                                               ; preds = %27
  %40 = shl nuw nsw i32 1, %25
  %41 = add nsw i32 %40, -1
  %42 = zext nneg i32 %41 to i64
  %43 = shl nuw nsw i64 %42, 2
  %44 = add nuw nsw i64 %43, 39
  %45 = lshr i64 %44, 3
  %46 = load ptr, ptr @_ZL9pmem_next, align 8, !tbaa !32
  %47 = ptrtoint ptr %46 to i64
  %48 = sub i64 %47, ptrtoint (ptr @_ZL11private_mem to i64)
  %49 = ashr exact i64 %48, 3
  %50 = add nsw i64 %49, %45
  %51 = icmp slt i64 %50, 289
  br i1 %51, label %52, label %54

52:                                               ; preds = %39
  %53 = getelementptr inbounds nuw double, ptr %46, i64 %45
  store ptr %53, ptr @_ZL9pmem_next, align 8, !tbaa !32
  br label %59

54:                                               ; preds = %39, %33
  %55 = phi i64 [ %44, %39 ], [ %38, %33 ]
  %56 = phi i32 [ %40, %39 ], [ %34, %33 ]
  %57 = and i64 %55, 34359738360
  %58 = tail call noalias ptr @malloc(i64 noundef %57) #18
  br label %59

59:                                               ; preds = %54, %52
  %60 = phi i32 [ %40, %52 ], [ %56, %54 ]
  %.1.i = phi ptr [ %46, %52 ], [ %58, %54 ]
  %61 = getelementptr inbounds nuw i8, ptr %.1.i, i64 8
  store i32 %25, ptr %61, align 8, !tbaa !34
  %62 = getelementptr inbounds nuw i8, ptr %.1.i, i64 12
  store i32 %60, ptr %62, align 4, !tbaa !35
  br label %63

63:                                               ; preds = %59, %31
  %.0.i = phi ptr [ %30, %31 ], [ %.1.i, %59 ]
  %64 = getelementptr inbounds nuw i8, ptr %.0.i, i64 20
  store i32 0, ptr %64, align 4, !tbaa !37
  %65 = getelementptr inbounds nuw i8, ptr %.0.i, i64 16
  store i32 0, ptr %65, align 8, !tbaa !36
  %66 = getelementptr inbounds nuw i8, ptr %0, i64 16
  %67 = load i32, ptr %4, align 4, !tbaa !37
  %68 = sext i32 %67 to i64
  %69 = shl nsw i64 %68, 2
  %70 = add nsw i64 %69, 8
  tail call void @llvm.memcpy.p0.p0.i64(ptr nonnull align 8 %65, ptr nonnull align 8 %66, i64 %70, i1 false)
  %71 = load i32, ptr %23, align 8, !tbaa !34
  %72 = icmp sgt i32 %71, 7
  br i1 %72, label %73, label %74

73:                                               ; preds = %63
  tail call void @free(ptr noundef nonnull %0) #16
  br label %_ZN6dmg_fpL5BfreeEPNS_6BigintE.exit

74:                                               ; preds = %63
  %75 = sext i32 %71 to i64
  %76 = getelementptr inbounds [8 x ptr], ptr @_ZN6dmg_fpL8freelistE, i64 0, i64 %75
  %77 = load ptr, ptr %76, align 8, !tbaa !28
  store ptr %77, ptr %0, align 8, !tbaa !30
  store ptr %0, ptr %76, align 8, !tbaa !28
  br label %_ZN6dmg_fpL5BfreeEPNS_6BigintE.exit

_ZN6dmg_fpL5BfreeEPNS_6BigintE.exit:              ; preds = %74, %73, %19
  %.1 = phi ptr [ %0, %19 ], [ %.0.i, %73 ], [ %.0.i, %74 ]
  %78 = trunc nuw i64 %14 to i32
  %79 = getelementptr inbounds nuw i8, ptr %.1, i64 24
  %80 = add nsw i32 %5, 1
  %81 = sext i32 %5 to i64
  %82 = getelementptr inbounds [1 x i32], ptr %79, i64 0, i64 %81
  store i32 %78, ptr %82, align 4, !tbaa !20
  %83 = getelementptr inbounds nuw i8, ptr %.1, i64 20
  store i32 %80, ptr %83, align 4, !tbaa !37
  br label %84

84:                                               ; preds = %_ZN6dmg_fpL5BfreeEPNS_6BigintE.exit, %18
  %.0 = phi ptr [ %.1, %_ZN6dmg_fpL5BfreeEPNS_6BigintE.exit ], [ %0, %18 ]
  ret ptr %.0
}